; Function Attrs: mustprogress uwtable
define internal fastcc void @"_ZSt22__stable_sort_adaptiveIN9__gnu_cxx17__normal_iteratorIPN11flatbuffers15BinaryAnnotator6VTable5EntryESt6vectorIS5_SaIS5_EEEES6_lNS0_5__ops15_Iter_comp_iterIZNS3_10BuildTableEmNS2_17BinarySectionTypeEPKN10reflection6ObjectEE3$_0EEEvT_SK_T0_T1_T2_"(ptr %0, ptr %1, ptr noundef %2, i64 noundef %3) unnamed_addr #3 {
  %5 = ptrtoint ptr %1 to i64
  %6 = ptrtoint ptr %0 to i64
  %7 = sub i64 %5, %6
  %8 = ashr exact i64 %7, 4
  %9 = add nsw i64 %8, 1
  %10 = sdiv i64 %9, 2
  %11 = getelementptr inbounds %"struct.flatbuffers::BinaryAnnotator::VTable::Entry", ptr %0, i64 %10
  %12 = icmp sgt i64 %10, %3
  br i1 %12, label %13, label %14

13:                                               ; preds = %4
  tail call fastcc void @"_ZSt22__stable_sort_adaptiveIN9__gnu_cxx17__normal_iteratorIPN11flatbuffers15BinaryAnnotator6VTable5EntryESt6vectorIS5_SaIS5_EEEES6_lNS0_5__ops15_Iter_comp_iterIZNS3_10BuildTableEmNS2_17BinarySectionTypeEPKN10reflection6ObjectEE3$_0EEEvT_SK_T0_T1_T2_"(ptr %0, ptr %11, ptr noundef %2, i64 noundef %3)
  tail call fastcc void @"_ZSt22__stable_sort_adaptiveIN9__gnu_cxx17__normal_iteratorIPN11flatbuffers15BinaryAnnotator6VTable5EntryESt6vectorIS5_SaIS5_EEEES6_lNS0_5__ops15_Iter_comp_iterIZNS3_10BuildTableEmNS2_17BinarySectionTypeEPKN10reflection6ObjectEE3$_0EEEvT_SK_T0_T1_T2_"(ptr %11, ptr %1, ptr noundef %2, i64 noundef %3)
  br label %15

14:                                               ; preds = %4
  tail call fastcc void @"_ZSt24__merge_sort_with_bufferIN9__gnu_cxx17__normal_iteratorIPN11flatbuffers15BinaryAnnotator6VTable5EntryESt6vectorIS5_SaIS5_EEEES6_NS0_5__ops15_Iter_comp_iterIZNS3_10BuildTableEmNS2_17BinarySectionTypeEPKN10reflection6ObjectEE3$_0EEEvT_SK_T0_T1_"(ptr %0, ptr %11, ptr noundef %2)
  tail call fastcc void @"_ZSt24__merge_sort_with_bufferIN9__gnu_cxx17__normal_iteratorIPN11flatbuffers15BinaryAnnotator6VTable5EntryESt6vectorIS5_SaIS5_EEEES6_NS0_5__ops15_Iter_comp_iterIZNS3_10BuildTableEmNS2_17BinarySectionTypeEPKN10reflection6ObjectEE3$_0EEEvT_SK_T0_T1_"(ptr %11, ptr %1, ptr noundef %2)
  br label %15

15:                                               ; preds = %14, %13
  %16 = ptrtoint ptr %11 to i64
  %17 = sub i64 %5, %16
  %18 = ashr exact i64 %17, 4
  tail call fastcc void @"_ZSt16__merge_adaptiveIN9__gnu_cxx17__normal_iteratorIPN11flatbuffers15BinaryAnnotator6VTable5EntryESt6vectorIS5_SaIS5_EEEElS6_NS0_5__ops15_Iter_comp_iterIZNS3_10BuildTableEmNS2_17BinarySectionTypeEPKN10reflection6ObjectEE3$_0EEEvT_SK_SK_T0_SL_T1_SL_T2_"(ptr %0, ptr %11, ptr %1, i64 noundef %10, i64 noundef %18, ptr noundef %2, i64 noundef %3)
  ret void
}